; Function Attrs: mustprogress uwtable
define dso_local noundef i32 @removeCmtText(ptr noundef %source, i32 noundef %srcLen, ptr noundef %status) local_unnamed_addr #0 personality ptr @__gxx_personality_v0 {
entry:
  %patString = alloca %"class.icu_75::UnicodeString", align 8
  %agg.tmp = alloca %"class.icu_75::UnicodeString", align 8
  %agg.tmp1 = alloca %"class.icu_75::UnicodeString", align 8
  %agg.tmp7 = alloca %"class.icu_75::UnicodeString", align 8
  %agg.tmp9 = alloca %"class.icu_75::UnicodeString", align 8
  %call = tail call i32 @trim(ptr noundef %source, i32 noundef %srcLen, ptr noundef %status)
  call void @_ZN6icu_7513UnicodeStringC1EPKc(ptr noundef nonnull align 8 dereferenceable(64) %patString, ptr noundef nonnull @.str.5)
  invoke void @_ZN6icu_7513UnicodeStringC1ERKS0_(ptr noundef nonnull align 8 dereferenceable(64) %agg.tmp, ptr noundef nonnull align 8 dereferenceable(64) %patString)
          to label %invoke.cont3 unwind label %lpad

invoke.cont3:                                     ; preds = %entry
  store ptr getelementptr inbounds ({ [13 x ptr] }, ptr @_ZTVN6icu_7513UnicodeStringE, i64 0, i32 0, i64 2), ptr %agg.tmp1, align 8
  %fUnion2.i = getelementptr inbounds i8, ptr %agg.tmp1, i64 8
  store i16 2, ptr %fUnion2.i, align 8
  %call6 = invoke i32 @removeText(ptr noundef %source, i32 noundef %call, ptr noundef nonnull %agg.tmp, i32 noundef 8, ptr noundef nonnull %agg.tmp1, ptr noundef %status)
          to label %invoke.cont5 unwind label %lpad4

invoke.cont5:                                     ; preds = %invoke.cont3
  call void @_ZN6icu_7513UnicodeStringD1Ev(ptr noundef nonnull align 8 dereferenceable(64) %agg.tmp1) #5
  call void @_ZN6icu_7513UnicodeStringD1Ev(ptr noundef nonnull align 8 dereferenceable(64) %agg.tmp) #5
  invoke void @_ZN6icu_7513UnicodeStringC1EPKc(ptr noundef nonnull align 8 dereferenceable(64) %agg.tmp7, ptr noundef nonnull @.str.6)
          to label %invoke.cont8 unwind label %lpad

invoke.cont8:                                     ; preds = %invoke.cont5
  invoke void @_ZN6icu_7513UnicodeStringC1EPKc(ptr noundef nonnull align 8 dereferenceable(64) %agg.tmp9, ptr noundef nonnull @.str.7)
          to label %invoke.cont11 unwind label %lpad10

invoke.cont11:                                    ; preds = %invoke.cont8
  %call14 = invoke i32 @removeText(ptr noundef %source, i32 noundef %call6, ptr noundef nonnull %agg.tmp7, i32 noundef 0, ptr noundef nonnull %agg.tmp9, ptr noundef %status)
          to label %invoke.cont13 unwind label %lpad12

invoke.cont13:                                    ; preds = %invoke.cont11
  call void @_ZN6icu_7513UnicodeStringD1Ev(ptr noundef nonnull align 8 dereferenceable(64) %agg.tmp9) #5
  call void @_ZN6icu_7513UnicodeStringD1Ev(ptr noundef nonnull align 8 dereferenceable(64) %agg.tmp7) #5
  call void @_ZN6icu_7513UnicodeStringD1Ev(ptr noundef nonnull align 8 dereferenceable(64) %patString) #5
  ret i32 %call14

lpad:                                             ; preds = %invoke.cont5, %entry
  %0 = landingpad { ptr, i32 }
          cleanup
  br label %ehcleanup17

lpad4:                                            ; preds = %invoke.cont3
  %1 = landingpad { ptr, i32 }
          cleanup
  call void @_ZN6icu_7513UnicodeStringD1Ev(ptr noundef nonnull align 8 dereferenceable(64) %agg.tmp1) #5
  call void @_ZN6icu_7513UnicodeStringD1Ev(ptr noundef nonnull align 8 dereferenceable(64) %agg.tmp) #5
  br label %ehcleanup17

lpad10:                                           ; preds = %invoke.cont8
  %2 = landingpad { ptr, i32 }
          cleanup
  br label %ehcleanup16

lpad12:                                           ; preds = %invoke.cont11
  %3 = landingpad { ptr, i32 }
          cleanup
  call void @_ZN6icu_7513UnicodeStringD1Ev(ptr noundef nonnull align 8 dereferenceable(64) %agg.tmp9) #5
  br label %ehcleanup16

ehcleanup16:                                      ; preds = %lpad12, %lpad10
  %.pn8 = phi { ptr, i32 } [ %3, %lpad12 ], [ %2, %lpad10 ]
  call void @_ZN6icu_7513UnicodeStringD1Ev(ptr noundef nonnull align 8 dereferenceable(64) %agg.tmp7) #5
  br label %ehcleanup17

ehcleanup17:                                      ; preds = %ehcleanup16, %lpad4, %lpad
  %.pn8.pn = phi { ptr, i32 } [ %.pn8, %ehcleanup16 ], [ %0, %lpad ], [ %1, %lpad4 ]
  call void @_ZN6icu_7513UnicodeStringD1Ev(ptr noundef nonnull align 8 dereferenceable(64) %patString) #5
  resume { ptr, i32 } %.pn8.pn
}